target datalayout = "e-m:e-p270:32:32-p271:32:32-p272:64:64-i64:64-i128:128-f80:128-n8:16:32:64-S128"
target triple = "x86_64-pc-linux-gnu"

%struct.TupleTableSlotOps = type { i64, ptr, ptr, ptr, ptr, ptr, ptr, ptr, ptr, ptr, ptr, ptr, ptr }
%struct.ForEachState = type { ptr, i32 }
%struct.ValuesScanState = type { %struct.ScanState, ptr, ptr, ptr, i32, i32 }
%struct.ScanState = type { %struct.PlanState, ptr, ptr, ptr }
%struct.PlanState = type { i32, ptr, ptr, ptr, ptr, ptr, ptr, ptr, ptr, ptr, ptr, ptr, ptr, ptr, ptr, ptr, ptr, ptr, i8, ptr, ptr, ptr, ptr, ptr, i8, i8, i8, i8, i8, i8, i8, i8 }
%struct.List = type { i32, i32, i32, ptr, [0 x %union.ListCell] }
%union.ListCell = type { ptr }
%struct.EState = type { i32, i32, ptr, ptr, ptr, i32, ptr, ptr, ptr, ptr, ptr, ptr, ptr, ptr, ptr, ptr, i32, ptr, ptr, ptr, ptr, ptr, ptr, ptr, ptr, ptr, ptr, i64, i64, i32, i32, i8, ptr, ptr, ptr, ptr, ptr, i8, i32, i32, ptr, i32, ptr, ptr, ptr, ptr }
%struct.TupleTableSlot = type { i32, i16, i16, ptr, ptr, ptr, ptr, ptr, %struct.ItemPointerData, i32 }
%struct.ItemPointerData = type { %struct.BlockIdData, i16 }
%struct.BlockIdData = type { i16, i16 }
%struct.ExprContext = type { i32, ptr, ptr, ptr, ptr, ptr, ptr, ptr, ptr, ptr, i64, i8, i64, i8, ptr, ptr, ptr, ptr }
%struct.CompactAttribute = type { i32, i16, i8, i8, i8, i8, i8, i8, i8 }
%struct.TupleDescData = type { i32, i32, i32, i32, ptr, [0 x %struct.CompactAttribute] }
%struct.ExprState = type { i32, i8, i8, i64, ptr, ptr, ptr, ptr, ptr, i32, i32, ptr, ptr, ptr, ptr, ptr, ptr, ptr }

@CurrentMemoryContext = external global ptr, align 8

; Function Attrs: inlinehint nounwind uwtable
define internal i64 @ExecEvalExpr(ptr noundef %0, ptr noundef %1, ptr noundef %2) #2 {
  %4 = alloca ptr, align 8
  %5 = alloca ptr, align 8
  %6 = alloca ptr, align 8
  store ptr %0, ptr %4, align 8
  store ptr %1, ptr %5, align 8
  store ptr %2, ptr %6, align 8
  %7 = load ptr, ptr %4, align 8
  %8 = getelementptr inbounds nuw %struct.ExprState, ptr %7, i32 0, i32 6
  %9 = load ptr, ptr %8, align 8
  %10 = load ptr, ptr %4, align 8
  %11 = load ptr, ptr %5, align 8
  %12 = load ptr, ptr %6, align 8
  %13 = call i64 %9(ptr noundef %10, ptr noundef %11, ptr noundef %12)
  ret i64 %13
}

; Function Attrs: inlinehint nounwind uwtable
define internal ptr @TupleDescCompactAttr(ptr noundef %0, i32 noundef %1) #2 {
  %3 = alloca ptr, align 8
  %4 = alloca i32, align 4
  %5 = alloca ptr, align 8
  store ptr %0, ptr %3, align 8
  store i32 %1, ptr %4, align 4
  call void @llvm.lifetime.start.p0(i64 8, ptr %5) #5
  %6 = load ptr, ptr %3, align 8
  %7 = getelementptr inbounds nuw %struct.TupleDescData, ptr %6, i32 0, i32 5
  %8 = load i32, ptr %4, align 4
  %9 = sext i32 %8 to i64
  %10 = getelementptr inbounds [0 x %struct.CompactAttribute], ptr %7, i64 0, i64 %9
  store ptr %10, ptr %5, align 8
  %11 = load ptr, ptr %5, align 8
  call void @llvm.lifetime.end.p0(i64 8, ptr %5) #5
  ret ptr %11
}

; Function Attrs: inlinehint nounwind uwtable
define internal ptr @MemoryContextSwitchTo(ptr noundef %0) #2 {
  %2 = alloca ptr, align 8
  %3 = alloca ptr, align 8
  store ptr %0, ptr %2, align 8
  call void @llvm.lifetime.start.p0(i64 8, ptr %3) #5
  %4 = load ptr, ptr @CurrentMemoryContext, align 8
  store ptr %4, ptr %3, align 8
  %5 = load ptr, ptr %2, align 8
  store ptr %5, ptr @CurrentMemoryContext, align 8
  %6 = load ptr, ptr %3, align 8
  call void @llvm.lifetime.end.p0(i64 8, ptr %3) #5
  ret ptr %6
}

; Function Attrs: inlinehint nounwind uwtable
define internal ptr @ExecClearTuple(ptr noundef %0) #2 {
  %2 = alloca ptr, align 8
  store ptr %0, ptr %2, align 8
  %3 = load ptr, ptr %2, align 8
  %4 = getelementptr inbounds nuw %struct.TupleTableSlot, ptr %3, i32 0, i32 3
  %5 = load ptr, ptr %4, align 8
  %6 = getelementptr inbounds nuw %struct.TupleTableSlotOps, ptr %5, i32 0, i32 3
  %7 = load ptr, ptr %6, align 8
  %8 = load ptr, ptr %2, align 8
  call void %7(ptr noundef %8)
  %9 = load ptr, ptr %2, align 8
  ret ptr %9
}

; Function Attrs: nounwind uwtable
define internal ptr @ValuesNext(ptr noundef %0) #0 {
  %2 = alloca ptr, align 8
  %3 = alloca ptr, align 8
  %4 = alloca ptr, align 8
  %5 = alloca ptr, align 8
  %6 = alloca i32, align 4
  %7 = alloca i32, align 4
  %8 = alloca ptr, align 8
  %9 = alloca ptr, align 8
  %10 = alloca ptr, align 8
  %11 = alloca ptr, align 8
  %12 = alloca ptr, align 8
  %13 = alloca ptr, align 8
  %14 = alloca i32, align 4
  %15 = alloca %struct.ForEachState, align 8
  %16 = alloca ptr, align 8
  %17 = alloca ptr, align 8
  store ptr %0, ptr %2, align 8
  call void @llvm.lifetime.start.p0(i64 8, ptr %3) #5
  call void @llvm.lifetime.start.p0(i64 8, ptr %4) #5
  call void @llvm.lifetime.start.p0(i64 8, ptr %5) #5
  call void @llvm.lifetime.start.p0(i64 4, ptr %6) #5
  call void @llvm.lifetime.start.p0(i64 4, ptr %7) #5
  %18 = load ptr, ptr %2, align 8
  %19 = getelementptr inbounds nuw %struct.ValuesScanState, ptr %18, i32 0, i32 0
  %20 = getelementptr inbounds nuw %struct.ScanState, ptr %19, i32 0, i32 0
  %21 = getelementptr inbounds nuw %struct.PlanState, ptr %20, i32 0, i32 2
  %22 = load ptr, ptr %21, align 8
  store ptr %22, ptr %4, align 8
  %23 = load ptr, ptr %4, align 8
  %24 = getelementptr inbounds nuw %struct.EState, ptr %23, i32 0, i32 1
  %25 = load i32, ptr %24, align 4
  store i32 %25, ptr %6, align 4
  %26 = load ptr, ptr %2, align 8
  %27 = getelementptr inbounds nuw %struct.ValuesScanState, ptr %26, i32 0, i32 0
  %28 = getelementptr inbounds nuw %struct.ScanState, ptr %27, i32 0, i32 3
  %29 = load ptr, ptr %28, align 8
  store ptr %29, ptr %3, align 8
  %30 = load ptr, ptr %2, align 8
  %31 = getelementptr inbounds nuw %struct.ValuesScanState, ptr %30, i32 0, i32 1
  %32 = load ptr, ptr %31, align 8
  store ptr %32, ptr %5, align 8
  %33 = load i32, ptr %6, align 4
  %34 = icmp eq i32 %33, 1
  br i1 %34, label %35, label %49

35:                                               ; preds = %1
  %36 = load ptr, ptr %2, align 8
  %37 = getelementptr inbounds nuw %struct.ValuesScanState, ptr %36, i32 0, i32 5
  %38 = load i32, ptr %37, align 4
  %39 = load ptr, ptr %2, align 8
  %40 = getelementptr inbounds nuw %struct.ValuesScanState, ptr %39, i32 0, i32 4
  %41 = load i32, ptr %40, align 8
  %42 = icmp slt i32 %38, %41
  br i1 %42, label %43, label %48

43:                                               ; preds = %35
  %44 = load ptr, ptr %2, align 8
  %45 = getelementptr inbounds nuw %struct.ValuesScanState, ptr %44, i32 0, i32 5
  %46 = load i32, ptr %45, align 4
  %47 = add i32 %46, 1
  store i32 %47, ptr %45, align 4
  br label %48

48:                                               ; preds = %43, %35
  br label %60

49:                                               ; preds = %1
  %50 = load ptr, ptr %2, align 8
  %51 = getelementptr inbounds nuw %struct.ValuesScanState, ptr %50, i32 0, i32 5
  %52 = load i32, ptr %51, align 4
  %53 = icmp sge i32 %52, 0
  br i1 %53, label %54, label %59

54:                                               ; preds = %49
  %55 = load ptr, ptr %2, align 8
  %56 = getelementptr inbounds nuw %struct.ValuesScanState, ptr %55, i32 0, i32 5
  %57 = load i32, ptr %56, align 4
  %58 = add i32 %57, -1
  store i32 %58, ptr %56, align 4
  br label %59

59:                                               ; preds = %54, %49
  br label %60

60:                                               ; preds = %59, %48
  %61 = load ptr, ptr %3, align 8
  %62 = call ptr @ExecClearTuple(ptr noundef %61)
  %63 = load ptr, ptr %2, align 8
  %64 = getelementptr inbounds nuw %struct.ValuesScanState, ptr %63, i32 0, i32 5
  %65 = load i32, ptr %64, align 4
  store i32 %65, ptr %7, align 4
  %66 = load i32, ptr %7, align 4
  %67 = icmp sge i32 %66, 0
  br i1 %67, label %68, label %197

68:                                               ; preds = %60
  %69 = load i32, ptr %7, align 4
  %70 = load ptr, ptr %2, align 8
  %71 = getelementptr inbounds nuw %struct.ValuesScanState, ptr %70, i32 0, i32 4
  %72 = load i32, ptr %71, align 8
  %73 = icmp slt i32 %69, %72
  br i1 %73, label %74, label %197

74:                                               ; preds = %68
  call void @llvm.lifetime.start.p0(i64 8, ptr %8) #5
  %75 = load ptr, ptr %2, align 8
  %76 = getelementptr inbounds nuw %struct.ValuesScanState, ptr %75, i32 0, i32 2
  %77 = load ptr, ptr %76, align 8
  %78 = load i32, ptr %7, align 4
  %79 = sext i32 %78 to i64
  %80 = getelementptr inbounds ptr, ptr %77, i64 %79
  %81 = load ptr, ptr %80, align 8
  store ptr %81, ptr %8, align 8
  call void @llvm.lifetime.start.p0(i64 8, ptr %9) #5
  %82 = load ptr, ptr %2, align 8
  %83 = getelementptr inbounds nuw %struct.ValuesScanState, ptr %82, i32 0, i32 3
  %84 = load ptr, ptr %83, align 8
  %85 = load i32, ptr %7, align 4
  %86 = sext i32 %85 to i64
  %87 = getelementptr inbounds ptr, ptr %84, i64 %86
  %88 = load ptr, ptr %87, align 8
  store ptr %88, ptr %9, align 8
  call void @llvm.lifetime.start.p0(i64 8, ptr %10) #5
  call void @llvm.lifetime.start.p0(i64 8, ptr %11) #5
  call void @llvm.lifetime.start.p0(i64 8, ptr %12) #5
  call void @llvm.lifetime.start.p0(i64 8, ptr %13) #5
  call void @llvm.lifetime.start.p0(i64 4, ptr %14) #5
  %89 = load ptr, ptr %5, align 8
  call void @ReScanExprContext(ptr noundef %89)
  %90 = load ptr, ptr %5, align 8
  %91 = getelementptr inbounds nuw %struct.ExprContext, ptr %90, i32 0, i32 5
  %92 = load ptr, ptr %91, align 8
  %93 = call ptr @MemoryContextSwitchTo(ptr noundef %92)
  store ptr %93, ptr %10, align 8
  %94 = load ptr, ptr %9, align 8
  %95 = icmp eq ptr %94, null
  br i1 %95, label %96, label %99

96:                                               ; preds = %74
  %97 = load ptr, ptr %8, align 8
  %98 = call ptr @ExecInitExprList(ptr noundef %97, ptr noundef null)
  store ptr %98, ptr %9, align 8
  br label %99

99:                                               ; preds = %96, %74
  %100 = load ptr, ptr %3, align 8
  %101 = getelementptr inbounds nuw %struct.TupleTableSlot, ptr %100, i32 0, i32 5
  %102 = load ptr, ptr %101, align 8
  store ptr %102, ptr %11, align 8
  %103 = load ptr, ptr %3, align 8
  %104 = getelementptr inbounds nuw %struct.TupleTableSlot, ptr %103, i32 0, i32 6
  %105 = load ptr, ptr %104, align 8
  store ptr %105, ptr %12, align 8
  store i32 0, ptr %14, align 4
  call void @llvm.lifetime.start.p0(i64 16, ptr %15) #5
  %106 = getelementptr inbounds nuw %struct.ForEachState, ptr %15, i32 0, i32 0
  %107 = load ptr, ptr %9, align 8
  store ptr %107, ptr %106, align 8
  %108 = getelementptr inbounds nuw %struct.ForEachState, ptr %15, i32 0, i32 1
  store i32 0, ptr %108, align 8
  %109 = getelementptr i8, ptr %15, i64 12
  call void @llvm.memset.p0.i64(ptr align 4 %109, i8 0, i64 4, i1 false)
  br label %110

110:                                              ; preds = %188, %99
  %111 = getelementptr inbounds nuw %struct.ForEachState, ptr %15, i32 0, i32 0
  %112 = load ptr, ptr %111, align 8
  %113 = icmp ne ptr %112, null
  br i1 %113, label %114, label %131

114:                                              ; preds = %110
  %115 = getelementptr inbounds nuw %struct.ForEachState, ptr %15, i32 0, i32 1
  %116 = load i32, ptr %115, align 8
  %117 = getelementptr inbounds nuw %struct.ForEachState, ptr %15, i32 0, i32 0
  %118 = load ptr, ptr %117, align 8
  %119 = getelementptr inbounds nuw %struct.List, ptr %118, i32 0, i32 1
  %120 = load i32, ptr %119, align 4
  %121 = icmp slt i32 %116, %120
  br i1 %121, label %122, label %131

122:                                              ; preds = %114
  %123 = getelementptr inbounds nuw %struct.ForEachState, ptr %15, i32 0, i32 0
  %124 = load ptr, ptr %123, align 8
  %125 = getelementptr inbounds nuw %struct.List, ptr %124, i32 0, i32 3
  %126 = load ptr, ptr %125, align 8
  %127 = getelementptr inbounds nuw %struct.ForEachState, ptr %15, i32 0, i32 1
  %128 = load i32, ptr %127, align 8
  %129 = sext i32 %128 to i64
  %130 = getelementptr inbounds %union.ListCell, ptr %126, i64 %129
  store ptr %130, ptr %13, align 8
  br label %132

131:                                              ; preds = %114, %110
  store ptr null, ptr %13, align 8
  br label %132

132:                                              ; preds = %131, %122
  %133 = phi i32 [ 1, %122 ], [ 0, %131 ]
  %134 = icmp ne i32 %133, 0
  br i1 %134, label %136, label %135

135:                                              ; preds = %132
  call void @llvm.lifetime.end.p0(i64 16, ptr %15) #5
  br label %192

136:                                              ; preds = %132
  call void @llvm.lifetime.start.p0(i64 8, ptr %16) #5
  %137 = load ptr, ptr %13, align 8
  %138 = load ptr, ptr %137, align 8
  store ptr %138, ptr %16, align 8
  call void @llvm.lifetime.start.p0(i64 8, ptr %17) #5
  %139 = load ptr, ptr %3, align 8
  %140 = getelementptr inbounds nuw %struct.TupleTableSlot, ptr %139, i32 0, i32 4
  %141 = load ptr, ptr %140, align 8
  %142 = load i32, ptr %14, align 4
  %143 = call ptr @TupleDescCompactAttr(ptr noundef %141, i32 noundef %142)
  store ptr %143, ptr %17, align 8
  %144 = load ptr, ptr %16, align 8
  %145 = load ptr, ptr %5, align 8
  %146 = load ptr, ptr %12, align 8
  %147 = load i32, ptr %14, align 4
  %148 = sext i32 %147 to i64
  %149 = getelementptr inbounds i8, ptr %146, i64 %148
  %150 = call i64 @ExecEvalExpr(ptr noundef %144, ptr noundef %145, ptr noundef %149)
  %151 = load ptr, ptr %11, align 8
  %152 = load i32, ptr %14, align 4
  %153 = sext i32 %152 to i64
  %154 = getelementptr inbounds i64, ptr %151, i64 %153
  store i64 %150, ptr %154, align 8
  %155 = load ptr, ptr %12, align 8
  %156 = load i32, ptr %14, align 4
  %157 = sext i32 %156 to i64
  %158 = getelementptr inbounds i8, ptr %155, i64 %157
  %159 = load i8, ptr %158, align 1, !range !6, !noundef !7
  %160 = trunc i8 %159 to i1
  br i1 %160, label %167, label %161

161:                                              ; preds = %136
  %162 = load ptr, ptr %17, align 8
  %163 = getelementptr inbounds nuw %struct.CompactAttribute, ptr %162, i32 0, i32 1
  %164 = load i16, ptr %163, align 4
  %165 = sext i16 %164 to i32
  %166 = icmp ne i32 %165, -1
  br i1 %166, label %167, label %173

167:                                              ; preds = %161, %136
  %168 = load ptr, ptr %11, align 8
  %169 = load i32, ptr %14, align 4
  %170 = sext i32 %169 to i64
  %171 = getelementptr inbounds i64, ptr %168, i64 %170
  %172 = load i64, ptr %171, align 8
  br label %180

173:                                              ; preds = %161
  %174 = load ptr, ptr %11, align 8
  %175 = load i32, ptr %14, align 4
  %176 = sext i32 %175 to i64
  %177 = getelementptr inbounds i64, ptr %174, i64 %176
  %178 = load i64, ptr %177, align 8
  %179 = call i64 @MakeExpandedObjectReadOnlyInternal(i64 noundef %178)
  br label %180

180:                                              ; preds = %173, %167
  %181 = phi i64 [ %172, %167 ], [ %179, %173 ]
  %182 = load ptr, ptr %11, align 8
  %183 = load i32, ptr %14, align 4
  %184 = sext i32 %183 to i64
  %185 = getelementptr inbounds i64, ptr %182, i64 %184
  store i64 %181, ptr %185, align 8
  %186 = load i32, ptr %14, align 4
  %187 = add i32 %186, 1
  store i32 %187, ptr %14, align 4
  call void @llvm.lifetime.end.p0(i64 8, ptr %17) #5
  call void @llvm.lifetime.end.p0(i64 8, ptr %16) #5
  br label %188

188:                                              ; preds = %180
  %189 = getelementptr inbounds nuw %struct.ForEachState, ptr %15, i32 0, i32 1
  %190 = load i32, ptr %189, align 8
  %191 = add i32 %190, 1
  store i32 %191, ptr %189, align 8
  br label %110, !llvm.loop !8

192:                                              ; preds = %135
  %193 = load ptr, ptr %10, align 8
  %194 = call ptr @MemoryContextSwitchTo(ptr noundef %193)
  %195 = load ptr, ptr %3, align 8
  %196 = call ptr @ExecStoreVirtualTuple(ptr noundef %195)
  call void @llvm.lifetime.end.p0(i64 4, ptr %14) #5
  call void @llvm.lifetime.end.p0(i64 8, ptr %13) #5
  call void @llvm.lifetime.end.p0(i64 8, ptr %12) #5
  call void @llvm.lifetime.end.p0(i64 8, ptr %11) #5
  call void @llvm.lifetime.end.p0(i64 8, ptr %10) #5
  call void @llvm.lifetime.end.p0(i64 8, ptr %9) #5
  call void @llvm.lifetime.end.p0(i64 8, ptr %8) #5
  br label %197

197:                                              ; preds = %192, %68, %60
  %198 = load ptr, ptr %3, align 8
  call void @llvm.lifetime.end.p0(i64 4, ptr %7) #5
  call void @llvm.lifetime.end.p0(i64 4, ptr %6) #5
  call void @llvm.lifetime.end.p0(i64 8, ptr %5) #5
  call void @llvm.lifetime.end.p0(i64 8, ptr %4) #5
  call void @llvm.lifetime.end.p0(i64 8, ptr %3) #5
  ret ptr %198
}