; Function Attrs: nounwind uwtable
define internal ptr @ValuesNext(ptr noundef captures(none) %0) #0 {
  %2 = getelementptr inbounds nuw i8, ptr %0, i64 16
  %3 = load ptr, ptr %2, align 8
  %4 = getelementptr inbounds nuw i8, ptr %3, i64 4
  %5 = load i32, ptr %4, align 4
  %6 = getelementptr inbounds nuw i8, ptr %0, i64 216
  %7 = load ptr, ptr %6, align 8
  %8 = getelementptr inbounds nuw i8, ptr %0, i64 224
  %9 = load ptr, ptr %8, align 8
  %10 = icmp eq i32 %5, 1
  %11 = getelementptr inbounds nuw i8, ptr %0, i64 252
  %12 = load i32, ptr %11, align 4
  br i1 %10, label %13, label %17

13:                                               ; preds = %1
  %14 = getelementptr inbounds nuw i8, ptr %0, i64 248
  %15 = load i32, ptr %14, align 8
  %16 = icmp slt i32 %12, %15
  br i1 %16, label %.sink.split, label %20

17:                                               ; preds = %1
  %18 = icmp sgt i32 %12, -1
  br i1 %18, label %.sink.split, label %20

.sink.split:                                      ; preds = %17, %13
  %.sink73 = phi i32 [ 1, %13 ], [ -1, %17 ]
  %19 = add nsw i32 %12, %.sink73
  store i32 %19, ptr %11, align 4
  br label %20

20:                                               ; preds = %.sink.split, %17, %13
  %21 = getelementptr inbounds nuw i8, ptr %7, i64 8
  %22 = load ptr, ptr %21, align 8
  %23 = getelementptr inbounds nuw i8, ptr %22, i64 24
  %24 = load ptr, ptr %23, align 8
  tail call void %24(ptr noundef %7) #3
  %25 = getelementptr inbounds nuw i8, ptr %0, i64 252
  %26 = load i32, ptr %25, align 4
  %27 = icmp sgt i32 %26, -1
  br i1 %27, label %28, label %78

28:                                               ; preds = %20
  %29 = getelementptr inbounds nuw i8, ptr %0, i64 248
  %30 = load i32, ptr %29, align 8
  %31 = icmp slt i32 %26, %30
  br i1 %31, label %32, label %78

32:                                               ; preds = %28
  %33 = getelementptr inbounds nuw i8, ptr %0, i64 232
  %34 = load ptr, ptr %33, align 8
  %35 = zext nneg i32 %26 to i64
  %36 = getelementptr inbounds nuw ptr, ptr %34, i64 %35
  %37 = load ptr, ptr %36, align 8
  %38 = getelementptr inbounds nuw i8, ptr %0, i64 240
  %39 = load ptr, ptr %38, align 8
  %40 = getelementptr inbounds nuw ptr, ptr %39, i64 %35
  %41 = load ptr, ptr %40, align 8
  tail call void @ReScanExprContext(ptr noundef %9) #3
  %42 = getelementptr inbounds nuw i8, ptr %9, i64 40
  %43 = load ptr, ptr %42, align 8
  %44 = load ptr, ptr @CurrentMemoryContext, align 8
  store ptr %43, ptr @CurrentMemoryContext, align 8
  %45 = icmp eq ptr %41, null
  br i1 %45, label %46, label %.lr.ph

46:                                               ; preds = %32
  %47 = tail call ptr @ExecInitExprList(ptr noundef %37, ptr noundef null) #3
  %.not = icmp eq ptr %47, null
  br i1 %.not, label %._crit_edge, label %.lr.ph

.lr.ph:                                           ; preds = %32, %46
  %.072 = phi ptr [ %47, %46 ], [ %41, %32 ]
  %.in74 = getelementptr inbounds nuw i8, ptr %7, i64 24
  %48 = load ptr, ptr %.in74, align 8
  %.in = getelementptr inbounds nuw i8, ptr %7, i64 32
  %49 = load ptr, ptr %.in, align 8
  %50 = getelementptr inbounds nuw i8, ptr %.072, i64 4
  %51 = getelementptr inbounds nuw i8, ptr %.072, i64 16
  %52 = getelementptr inbounds nuw i8, ptr %7, i64 16
  %53 = load i32, ptr %50, align 4
  %54 = icmp sgt i32 %53, 0
  br i1 %54, label %.lr.ph66, label %._crit_edge

._crit_edge:                                      ; preds = %73, %.lr.ph, %46
  store ptr %44, ptr @CurrentMemoryContext, align 8
  %55 = tail call ptr @ExecStoreVirtualTuple(ptr noundef nonnull %7) #3
  br label %78

.lr.ph66:                                         ; preds = %.lr.ph, %73
  %indvars.iv = phi i64 [ %indvars.iv.next, %73 ], [ 0, %.lr.ph ]
  %56 = load ptr, ptr %51, align 8
  %57 = getelementptr inbounds nuw %union.ListCell, ptr %56, i64 %indvars.iv
  %58 = load ptr, ptr %57, align 8
  %59 = load ptr, ptr %52, align 8
  %60 = getelementptr inbounds nuw i8, ptr %49, i64 %indvars.iv
  %61 = getelementptr inbounds nuw i8, ptr %58, i64 32
  %62 = load ptr, ptr %61, align 8
  %63 = tail call i64 %62(ptr noundef %58, ptr noundef %9, ptr noundef %60) #3
  %64 = getelementptr inbounds nuw i64, ptr %48, i64 %indvars.iv
  store i64 %63, ptr %64, align 8
  %65 = load i8, ptr %60, align 1, !range !4, !noundef !5
  %66 = trunc nuw i8 %65 to i1
  br i1 %66, label %73, label %67

67:                                               ; preds = %.lr.ph66
  %.idx = shl nsw i64 %indvars.iv, 4
  %68 = getelementptr i8, ptr %59, i64 28
  %69 = getelementptr i8, ptr %68, i64 %.idx
  %70 = load i16, ptr %69, align 4
  %.not58 = icmp eq i16 %70, -1
  br i1 %.not58, label %71, label %73

71:                                               ; preds = %67
  %72 = tail call i64 @MakeExpandedObjectReadOnlyInternal(i64 noundef %63) #3
  br label %73

73:                                               ; preds = %.lr.ph66, %67, %71
  %74 = phi i64 [ %72, %71 ], [ %63, %67 ], [ %63, %.lr.ph66 ]
  store i64 %74, ptr %64, align 8
  %indvars.iv.next = add nuw nsw i64 %indvars.iv, 1
  %75 = load i32, ptr %50, align 4
  %76 = sext i32 %75 to i64
  %77 = icmp slt i64 %indvars.iv.next, %76
  br i1 %77, label %.lr.ph66, label %._crit_edge

78:                                               ; preds = %._crit_edge, %28, %20
  ret ptr %7
}